; Function Attrs: nounwind uwtable
define ptr @l___private_Lean_Meta_Tactic_FunIndInfo_0__Lean_Meta_reprFunIndParamKind____x40_Lean_Meta_Tactic_FunIndInfo___hyg_28_(i8 noundef zeroext %0, ptr noundef %1) local_unnamed_addr #1 {
  %3 = ptrtoint ptr %1 to i64
  %4 = and i64 %3, 1
  %.not35 = icmp eq i64 %4, 0
  switch i8 %0, label %13 [
    i8 0, label %5
    i8 1, label %9
  ]

5:                                                ; preds = %2
  br i1 %.not35, label %lean_nat_le.exit, label %6, !prof !15

6:                                                ; preds = %5
  %.not36 = icmp ult ptr %1, inttoptr (i64 2049 to ptr)
  br i1 %.not36, label %17, label %8

lean_nat_le.exit:                                 ; preds = %5
  %7 = tail call zeroext i1 @lean_nat_big_le(ptr noundef nonnull inttoptr (i64 2049 to ptr), ptr noundef %1) #7
  br i1 %7, label %8, label %17

8:                                                ; preds = %6, %lean_nat_le.exit
  br label %17

9:                                                ; preds = %2
  br i1 %.not35, label %lean_nat_le.exit30, label %10, !prof !15

10:                                               ; preds = %9
  %.not = icmp ult ptr %1, inttoptr (i64 2049 to ptr)
  br i1 %.not, label %17, label %12

lean_nat_le.exit30:                               ; preds = %9
  %11 = tail call zeroext i1 @lean_nat_big_le(ptr noundef nonnull inttoptr (i64 2049 to ptr), ptr noundef %1) #7
  br i1 %11, label %12, label %17

12:                                               ; preds = %10, %lean_nat_le.exit30
  br label %17

13:                                               ; preds = %2
  br i1 %.not35, label %lean_nat_le.exit33, label %14, !prof !15

14:                                               ; preds = %13
  %.not37 = icmp ult ptr %1, inttoptr (i64 2049 to ptr)
  br i1 %.not37, label %17, label %16

lean_nat_le.exit33:                               ; preds = %13
  %15 = tail call zeroext i1 @lean_nat_big_le(ptr noundef nonnull inttoptr (i64 2049 to ptr), ptr noundef %1) #7
  br i1 %15, label %16, label %17

16:                                               ; preds = %14, %lean_nat_le.exit33
  br label %17

17:                                               ; preds = %lean_nat_le.exit33, %14, %lean_nat_le.exit30, %10, %lean_nat_le.exit, %6, %16, %12, %8
  %l___private_Lean_Meta_Tactic_FunIndInfo_0__Lean_Meta_reprFunIndParamKind____x40_Lean_Meta_Tactic_FunIndInfo___hyg_28____closed__18.sink = phi ptr [ @l___private_Lean_Meta_Tactic_FunIndInfo_0__Lean_Meta_reprFunIndParamKind____x40_Lean_Meta_Tactic_FunIndInfo___hyg_28____closed__20, %16 ], [ @l___private_Lean_Meta_Tactic_FunIndInfo_0__Lean_Meta_reprFunIndParamKind____x40_Lean_Meta_Tactic_FunIndInfo___hyg_28____closed__14, %12 ], [ @l___private_Lean_Meta_Tactic_FunIndInfo_0__Lean_Meta_reprFunIndParamKind____x40_Lean_Meta_Tactic_FunIndInfo___hyg_28____closed__8, %8 ], [ @l___private_Lean_Meta_Tactic_FunIndInfo_0__Lean_Meta_reprFunIndParamKind____x40_Lean_Meta_Tactic_FunIndInfo___hyg_28____closed__5, %6 ], [ @l___private_Lean_Meta_Tactic_FunIndInfo_0__Lean_Meta_reprFunIndParamKind____x40_Lean_Meta_Tactic_FunIndInfo___hyg_28____closed__5, %lean_nat_le.exit ], [ @l___private_Lean_Meta_Tactic_FunIndInfo_0__Lean_Meta_reprFunIndParamKind____x40_Lean_Meta_Tactic_FunIndInfo___hyg_28____closed__12, %10 ], [ @l___private_Lean_Meta_Tactic_FunIndInfo_0__Lean_Meta_reprFunIndParamKind____x40_Lean_Meta_Tactic_FunIndInfo___hyg_28____closed__12, %lean_nat_le.exit30 ], [ @l___private_Lean_Meta_Tactic_FunIndInfo_0__Lean_Meta_reprFunIndParamKind____x40_Lean_Meta_Tactic_FunIndInfo___hyg_28____closed__18, %14 ], [ @l___private_Lean_Meta_Tactic_FunIndInfo_0__Lean_Meta_reprFunIndParamKind____x40_Lean_Meta_Tactic_FunIndInfo___hyg_28____closed__18, %lean_nat_le.exit33 ]
  %18 = load ptr, ptr %l___private_Lean_Meta_Tactic_FunIndInfo_0__Lean_Meta_reprFunIndParamKind____x40_Lean_Meta_Tactic_FunIndInfo___hyg_28____closed__18.sink, align 8, !tbaa !10
  %19 = tail call ptr @l_Repr_addAppParen(ptr noundef %18, ptr noundef %1) #7
  ret ptr %19
}